target datalayout = "e-m:e-p270:32:32-p271:32:32-p272:64:64-i64:64-i128:128-f80:128-n8:16:32:64-S128"
target triple = "x86_64-pc-linux-gnu"

%struct.hmac_ctx_st = type { ptr, ptr, ptr, ptr, %union.anon }
%union.anon = type { i32 }

; Function Attrs: nounwind uwtable
define internal i32 @hmac_ctx_alloc_mds(ptr noundef %0) #0 {
  %2 = alloca i32, align 4
  %3 = alloca ptr, align 8
  store ptr %0, ptr %3, align 8, !tbaa !3
  %4 = load ptr, ptr %3, align 8, !tbaa !3
  %5 = getelementptr inbounds nuw %struct.hmac_ctx_st, ptr %4, i32 0, i32 2
  %6 = load ptr, ptr %5, align 8, !tbaa !22
  %7 = icmp eq ptr %6, null
  br i1 %7, label %8, label %12

8:                                                ; preds = %1
  %9 = call ptr @EVP_MD_CTX_new()
  %10 = load ptr, ptr %3, align 8, !tbaa !3
  %11 = getelementptr inbounds nuw %struct.hmac_ctx_st, ptr %10, i32 0, i32 2
  store ptr %9, ptr %11, align 8, !tbaa !22
  br label %12

12:                                               ; preds = %8, %1
  %13 = load ptr, ptr %3, align 8, !tbaa !3
  %14 = getelementptr inbounds nuw %struct.hmac_ctx_st, ptr %13, i32 0, i32 2
  %15 = load ptr, ptr %14, align 8, !tbaa !22
  %16 = icmp eq ptr %15, null
  br i1 %16, label %17, label %18

17:                                               ; preds = %12
  store i32 0, ptr %2, align 4
  br label %49

18:                                               ; preds = %12
  %19 = load ptr, ptr %3, align 8, !tbaa !3
  %20 = getelementptr inbounds nuw %struct.hmac_ctx_st, ptr %19, i32 0, i32 3
  %21 = load ptr, ptr %20, align 8, !tbaa !24
  %22 = icmp eq ptr %21, null
  br i1 %22, label %23, label %27

23:                                               ; preds = %18
  %24 = call ptr @EVP_MD_CTX_new()
  %25 = load ptr, ptr %3, align 8, !tbaa !3
  %26 = getelementptr inbounds nuw %struct.hmac_ctx_st, ptr %25, i32 0, i32 3
  store ptr %24, ptr %26, align 8, !tbaa !24
  br label %27

27:                                               ; preds = %23, %18
  %28 = load ptr, ptr %3, align 8, !tbaa !3
  %29 = getelementptr inbounds nuw %struct.hmac_ctx_st, ptr %28, i32 0, i32 3
  %30 = load ptr, ptr %29, align 8, !tbaa !24
  %31 = icmp eq ptr %30, null
  br i1 %31, label %32, label %33

32:                                               ; preds = %27
  store i32 0, ptr %2, align 4
  br label %49

33:                                               ; preds = %27
  %34 = load ptr, ptr %3, align 8, !tbaa !3
  %35 = getelementptr inbounds nuw %struct.hmac_ctx_st, ptr %34, i32 0, i32 1
  %36 = load ptr, ptr %35, align 8, !tbaa !18
  %37 = icmp eq ptr %36, null
  br i1 %37, label %38, label %42

38:                                               ; preds = %33
  %39 = call ptr @EVP_MD_CTX_new()
  %40 = load ptr, ptr %3, align 8, !tbaa !3
  %41 = getelementptr inbounds nuw %struct.hmac_ctx_st, ptr %40, i32 0, i32 1
  store ptr %39, ptr %41, align 8, !tbaa !18
  br label %42

42:                                               ; preds = %38, %33
  %43 = load ptr, ptr %3, align 8, !tbaa !3
  %44 = getelementptr inbounds nuw %struct.hmac_ctx_st, ptr %43, i32 0, i32 1
  %45 = load ptr, ptr %44, align 8, !tbaa !18
  %46 = icmp eq ptr %45, null
  br i1 %46, label %47, label %48

47:                                               ; preds = %42
  store i32 0, ptr %2, align 4
  br label %49

48:                                               ; preds = %42
  store i32 1, ptr %2, align 4
  br label %49

49:                                               ; preds = %48, %47, %32, %17
  %50 = load i32, ptr %2, align 4
  ret i32 %50
}

; Function Attrs: nounwind uwtable
define internal void @hmac_ctx_cleanup(ptr noundef %0) #0 {
  %2 = alloca ptr, align 8
  store ptr %0, ptr %2, align 8, !tbaa !3
  %3 = load ptr, ptr %2, align 8, !tbaa !3
  %4 = getelementptr inbounds nuw %struct.hmac_ctx_st, ptr %3, i32 0, i32 2
  %5 = load ptr, ptr %4, align 8, !tbaa !22
  %6 = call i32 @EVP_MD_CTX_reset(ptr noundef %5)
  %7 = load ptr, ptr %2, align 8, !tbaa !3
  %8 = getelementptr inbounds nuw %struct.hmac_ctx_st, ptr %7, i32 0, i32 3
  %9 = load ptr, ptr %8, align 8, !tbaa !24
  %10 = call i32 @EVP_MD_CTX_reset(ptr noundef %9)
  %11 = load ptr, ptr %2, align 8, !tbaa !3
  %12 = getelementptr inbounds nuw %struct.hmac_ctx_st, ptr %11, i32 0, i32 1
  %13 = load ptr, ptr %12, align 8, !tbaa !18
  %14 = call i32 @EVP_MD_CTX_reset(ptr noundef %13)
  %15 = load ptr, ptr %2, align 8, !tbaa !3
  %16 = getelementptr inbounds nuw %struct.hmac_ctx_st, ptr %15, i32 0, i32 0
  store ptr null, ptr %16, align 8, !tbaa !15
  ret void
}

; Function Attrs: nounwind uwtable
define i32 @HMAC_CTX_reset(ptr noundef %0) #0 {
  %2 = alloca i32, align 4
  %3 = alloca ptr, align 8
  store ptr %0, ptr %3, align 8, !tbaa !3
  %4 = load ptr, ptr %3, align 8, !tbaa !3
  call void @hmac_ctx_cleanup(ptr noundef %4)
  %5 = load ptr, ptr %3, align 8, !tbaa !3
  %6 = call i32 @hmac_ctx_alloc_mds(ptr noundef %5)
  %7 = icmp ne i32 %6, 0
  br i1 %7, label %10, label %8

8:                                                ; preds = %1
  %9 = load ptr, ptr %3, align 8, !tbaa !3
  call void @hmac_ctx_cleanup(ptr noundef %9)
  store i32 0, ptr %2, align 4
  br label %11

10:                                               ; preds = %1
  store i32 1, ptr %2, align 4
  br label %11

11:                                               ; preds = %10, %8
  %12 = load i32, ptr %2, align 4
  ret i32 %12
}