; Function Attrs: nounwind uwtable
define range(i32 0, 2) i32 @HMAC_CTX_reset(ptr noundef captures(none) initializes((0, 8)) %0) local_unnamed_addr #0 {
  %2 = getelementptr inbounds nuw i8, ptr %0, i64 16
  %3 = load ptr, ptr %2, align 8, !tbaa !17
  %4 = tail call i32 @EVP_MD_CTX_reset(ptr noundef %3) #7
  %5 = getelementptr inbounds nuw i8, ptr %0, i64 24
  %6 = load ptr, ptr %5, align 8, !tbaa !19
  %7 = tail call i32 @EVP_MD_CTX_reset(ptr noundef %6) #7
  %8 = getelementptr inbounds nuw i8, ptr %0, i64 8
  %9 = load ptr, ptr %8, align 8, !tbaa !11
  %10 = tail call i32 @EVP_MD_CTX_reset(ptr noundef %9) #7
  store ptr null, ptr %0, align 8, !tbaa !3
  %11 = load ptr, ptr %2, align 8, !tbaa !17
  %12 = icmp eq ptr %11, null
  br i1 %12, label %13, label %.thread.i

13:                                               ; preds = %1
  %14 = tail call ptr @EVP_MD_CTX_new() #7
  store ptr %14, ptr %2, align 8, !tbaa !17
  %15 = icmp eq ptr %14, null
  br i1 %15, label %hmac_ctx_alloc_mds.exit.thread, label %.thread.i

.thread.i:                                        ; preds = %13, %1
  %16 = load ptr, ptr %5, align 8, !tbaa !19
  %17 = icmp eq ptr %16, null
  br i1 %17, label %18, label %.thread9.i

18:                                               ; preds = %.thread.i
  %19 = tail call ptr @EVP_MD_CTX_new() #7
  store ptr %19, ptr %5, align 8, !tbaa !19
  %20 = icmp eq ptr %19, null
  br i1 %20, label %hmac_ctx_alloc_mds.exit.thread, label %.thread9.i

.thread9.i:                                       ; preds = %18, %.thread.i
  %21 = load ptr, ptr %8, align 8, !tbaa !11
  %22 = icmp eq ptr %21, null
  br i1 %22, label %hmac_ctx_alloc_mds.exit, label %hmac_ctx_alloc_mds.exit.thread5

hmac_ctx_alloc_mds.exit:                          ; preds = %.thread9.i
  %23 = tail call ptr @EVP_MD_CTX_new() #7
  store ptr %23, ptr %8, align 8, !tbaa !11
  %.not8 = icmp eq ptr %23, null
  br i1 %.not8, label %hmac_ctx_alloc_mds.exit.thread, label %hmac_ctx_alloc_mds.exit.thread5

hmac_ctx_alloc_mds.exit.thread:                   ; preds = %18, %13, %hmac_ctx_alloc_mds.exit
  %24 = load ptr, ptr %2, align 8, !tbaa !17
  %25 = tail call i32 @EVP_MD_CTX_reset(ptr noundef %24) #7
  %26 = load ptr, ptr %5, align 8, !tbaa !19
  %27 = tail call i32 @EVP_MD_CTX_reset(ptr noundef %26) #7
  %28 = load ptr, ptr %8, align 8, !tbaa !11
  %29 = tail call i32 @EVP_MD_CTX_reset(ptr noundef %28) #7
  store ptr null, ptr %0, align 8, !tbaa !3
  br label %hmac_ctx_alloc_mds.exit.thread5

hmac_ctx_alloc_mds.exit.thread5:                  ; preds = %.thread9.i, %hmac_ctx_alloc_mds.exit, %hmac_ctx_alloc_mds.exit.thread
  %.0 = phi i32 [ 0, %hmac_ctx_alloc_mds.exit.thread ], [ 1, %hmac_ctx_alloc_mds.exit ], [ 1, %.thread9.i ]
  ret i32 %.0
}